target datalayout = "e-m:e-p270:32:32-p271:32:32-p272:64:64-i64:64-i128:128-f80:128-n8:16:32:64-S128"
target triple = "x86_64-unknown-linux-gnu"

@.str.4 = private unnamed_addr constant [4 x i8] c" + \00", align 1

; Function Attrs: mustprogress uwtable
define hidden void @_ZNK7grobner17display_monomialsERSojPKPNS_8monomialERSt8functionIFvS0_P4exprEE(ptr noundef nonnull align 8 dereferenceable(228) %this, ptr noundef nonnull align 8 dereferenceable(8) %out, i32 noundef %num_monomials, ptr noundef %monomials, ptr noundef nonnull align 8 dereferenceable(32) %display_var) #4 align 2 {
entry:
  %this.addr = alloca ptr, align 8
  %out.addr = alloca ptr, align 8
  %num_monomials.addr = alloca i32, align 4
  %monomials.addr = alloca ptr, align 8
  %display_var.addr = alloca ptr, align 8
  %first = alloca i8, align 1
  %i = alloca i32, align 4
  %m = alloca ptr, align 8
  store ptr %this, ptr %this.addr, align 8
  store ptr %out, ptr %out.addr, align 8
  store i32 %num_monomials, ptr %num_monomials.addr, align 4
  store ptr %monomials, ptr %monomials.addr, align 8
  store ptr %display_var, ptr %display_var.addr, align 8
  %this1 = load ptr, ptr %this.addr, align 8
  store i8 1, ptr %first, align 1
  store i32 0, ptr %i, align 4
  br label %for.cond

for.cond:                                         ; preds = %for.inc, %entry
  %0 = load i32, ptr %i, align 4
  %1 = load i32, ptr %num_monomials.addr, align 4
  %cmp = icmp ult i32 %0, %1
  br i1 %cmp, label %for.body, label %for.end

for.body:                                         ; preds = %for.cond
  %2 = load ptr, ptr %monomials.addr, align 8
  %3 = load i32, ptr %i, align 4
  %idxprom = zext i32 %3 to i64
  %arrayidx = getelementptr inbounds ptr, ptr %2, i64 %idxprom
  %4 = load ptr, ptr %arrayidx, align 8
  store ptr %4, ptr %m, align 8
  %5 = load i8, ptr %first, align 1
  %tobool = trunc i8 %5 to i1
  br i1 %tobool, label %if.then, label %if.else

if.then:                                          ; preds = %for.body
  store i8 0, ptr %first, align 1
  br label %if.end

if.else:                                          ; preds = %for.body
  %6 = load ptr, ptr %out.addr, align 8
  %call = call noundef nonnull align 8 dereferenceable(8) ptr @_ZStlsISt11char_traitsIcEERSt13basic_ostreamIcT_ES5_PKc(ptr noundef nonnull align 8 dereferenceable(8) %6, ptr noundef @.str.4)
  br label %if.end

if.end:                                           ; preds = %if.else, %if.then
  %7 = load ptr, ptr %out.addr, align 8
  %8 = load ptr, ptr %m, align 8
  %9 = load ptr, ptr %display_var.addr, align 8
  call void @_ZNK7grobner16display_monomialERSoRKNS_8monomialERSt8functionIFvS0_P4exprEE(ptr noundef nonnull align 8 dereferenceable(228) %this1, ptr noundef nonnull align 8 dereferenceable(8) %7, ptr noundef nonnull align 8 dereferenceable(40) %8, ptr noundef nonnull align 8 dereferenceable(32) %9)
  br label %for.inc

for.inc:                                          ; preds = %if.end
  %10 = load i32, ptr %i, align 4
  %inc = add i32 %10, 1
  store i32 %inc, ptr %i, align 4
  br label %for.cond, !llvm.loop !11

for.end:                                          ; preds = %for.cond
  ret void
}