; Function Attrs: mustprogress uwtable
define hidden void @_ZNK7grobner17display_monomialsERSojPKPNS_8monomialERSt8functionIFvS0_P4exprEE(ptr nocapture noundef nonnull readnone align 8 dereferenceable(228) %this, ptr noundef nonnull align 8 dereferenceable(8) %out, i32 noundef %num_monomials, ptr nocapture noundef readonly %monomials, ptr noundef nonnull align 8 dereferenceable(32) %display_var) local_unnamed_addr #3 align 2 {
entry:
  %cmp4.not = icmp eq i32 %num_monomials, 0
  br i1 %cmp4.not, label %for.end, label %for.body.preheader

for.body.preheader:                               ; preds = %entry
  %wide.trip.count = zext i32 %num_monomials to i64
  br label %for.body

for.body:                                         ; preds = %for.body.preheader, %if.end
  %indvars.iv = phi i64 [ 0, %for.body.preheader ], [ %indvars.iv.next, %if.end ]
  %first.06 = phi i8 [ 1, %for.body.preheader ], [ %first.1, %if.end ]
  %arrayidx = getelementptr inbounds ptr, ptr %monomials, i64 %indvars.iv
  %0 = load ptr, ptr %arrayidx, align 8
  %1 = and i8 %first.06, 1
  %tobool.not = icmp eq i8 %1, 0
  br i1 %tobool.not, label %if.else, label %if.end

if.else:                                          ; preds = %for.body
  %call = tail call noundef nonnull align 8 dereferenceable(8) ptr @_ZStlsISt11char_traitsIcEERSt13basic_ostreamIcT_ES5_PKc(ptr noundef nonnull align 8 dereferenceable(8) %out, ptr noundef nonnull @.str.4)
  br label %if.end

if.end:                                           ; preds = %for.body, %if.else
  %first.1 = phi i8 [ %first.06, %if.else ], [ 0, %for.body ]
  tail call void @_ZNK7grobner16display_monomialERSoRKNS_8monomialERSt8functionIFvS0_P4exprEE(ptr nonnull align 8 poison, ptr noundef nonnull align 8 dereferenceable(8) %out, ptr noundef nonnull align 8 dereferenceable(40) %0, ptr noundef nonnull align 8 dereferenceable(32) %display_var)
  %indvars.iv.next = add nuw nsw i64 %indvars.iv, 1
  %exitcond.not = icmp eq i64 %indvars.iv.next, %wide.trip.count
  br i1 %exitcond.not, label %for.end, label %for.body, !llvm.loop !13

for.end:                                          ; preds = %if.end, %entry
  ret void
}